target datalayout = "e-m:e-p270:32:32-p271:32:32-p272:64:64-i64:64-i128:128-f80:128-n8:16:32:64-S128"
target triple = "x86_64-unknown-linux-gnu"

%class.btBvhTriangleMeshShape = type <{ %class.btTriangleMeshShape, ptr, ptr, i8, i8, [11 x i8], [3 x i8] }>
%class.btTriangleMeshShape = type { %class.btConcaveShape.base, %class.btVector3, %class.btVector3, ptr }
%class.btConcaveShape.base = type <{ %class.btCollisionShape, float }>
%class.btCollisionShape = type { ptr, i32, ptr, i32, i32 }
%class.btVector3 = type { [4 x float] }
%struct.btTriangleMeshShapeData = type { %struct.btCollisionShapeData, %struct.btStridingMeshInterfaceData, ptr, ptr, ptr, float, [4 x i8] }
%struct.btCollisionShapeData = type { ptr, i32, [4 x i8] }
%struct.btStridingMeshInterfaceData = type { ptr, %struct.btVector3FloatData, i32, [4 x i8] }
%struct.btVector3FloatData = type { [4 x float] }
%class.btConcaveShape = type <{ %class.btCollisionShape, float, [4 x i8] }>
%class.btChunk = type { i32, i32, ptr, i32, i32 }

@.str = private unnamed_addr constant [24 x i8] c"btTriangleMeshShapeData\00", align 1

; Function Attrs: mustprogress uwtable
define dso_local noundef ptr @_ZNK22btBvhTriangleMeshShape9serializeEPvP12btSerializer(ptr noundef nonnull align 8 dereferenceable(109) %this, ptr noundef %dataBuffer, ptr noundef %serializer) unnamed_addr #2 align 2 {
entry:
  %this.addr = alloca ptr, align 8
  %dataBuffer.addr = alloca ptr, align 8
  %serializer.addr = alloca ptr, align 8
  %trimeshData = alloca ptr, align 8
  %chunk = alloca ptr, align 8
  %sz = alloca i32, align 4
  %chunk25 = alloca ptr, align 8
  %structType = alloca ptr, align 8
  %chunk48 = alloca ptr, align 8
  %sz62 = alloca i32, align 4
  %chunk67 = alloca ptr, align 8
  %structType72 = alloca ptr, align 8
  store ptr %this, ptr %this.addr, align 8
  store ptr %dataBuffer, ptr %dataBuffer.addr, align 8
  store ptr %serializer, ptr %serializer.addr, align 8
  %this1 = load ptr, ptr %this.addr, align 8
  %0 = load ptr, ptr %dataBuffer.addr, align 8
  store ptr %0, ptr %trimeshData, align 8
  %1 = load ptr, ptr %trimeshData, align 8
  %m_collisionShapeData = getelementptr inbounds %struct.btTriangleMeshShapeData, ptr %1, i32 0, i32 0
  %2 = load ptr, ptr %serializer.addr, align 8
  %call = call noundef ptr @_ZNK16btCollisionShape9serializeEPvP12btSerializer(ptr noundef nonnull align 8 dereferenceable(32) %this1, ptr noundef %m_collisionShapeData, ptr noundef %2)
  %m_meshInterface = getelementptr inbounds %class.btTriangleMeshShape, ptr %this1, i32 0, i32 3
  %3 = load ptr, ptr %m_meshInterface, align 8
  %4 = load ptr, ptr %trimeshData, align 8
  %m_meshInterface2 = getelementptr inbounds %struct.btTriangleMeshShapeData, ptr %4, i32 0, i32 1
  %5 = load ptr, ptr %serializer.addr, align 8
  %vtable = load ptr, ptr %3, align 8
  %vfn = getelementptr inbounds ptr, ptr %vtable, i64 14
  %6 = load ptr, ptr %vfn, align 8
  %call3 = call noundef ptr %6(ptr noundef nonnull align 8 dereferenceable(24) %3, ptr noundef %m_meshInterface2, ptr noundef %5)
  %m_collisionMargin = getelementptr inbounds %class.btConcaveShape, ptr %this1, i32 0, i32 1
  %7 = load float, ptr %m_collisionMargin, align 8
  %8 = load ptr, ptr %trimeshData, align 8
  %m_collisionMargin4 = getelementptr inbounds %struct.btTriangleMeshShapeData, ptr %8, i32 0, i32 5
  store float %7, ptr %m_collisionMargin4, align 8
  %m_bvh = getelementptr inbounds %class.btBvhTriangleMeshShape, ptr %this1, i32 0, i32 1
  %9 = load ptr, ptr %m_bvh, align 8
  %tobool = icmp ne ptr %9, null
  br i1 %tobool, label %land.lhs.true, label %if.else36

land.lhs.true:                                    ; preds = %entry
  %10 = load ptr, ptr %serializer.addr, align 8
  %vtable5 = load ptr, ptr %10, align 8
  %vfn6 = getelementptr inbounds ptr, ptr %vtable5, i64 13
  %11 = load ptr, ptr %vfn6, align 8
  %call7 = call noundef i32 %11(ptr noundef nonnull align 8 dereferenceable(8) %10)
  %and = and i32 %call7, 1
  %tobool8 = icmp ne i32 %and, 0
  br i1 %tobool8, label %if.else36, label %if.then

if.then:                                          ; preds = %land.lhs.true
  %12 = load ptr, ptr %serializer.addr, align 8
  %m_bvh9 = getelementptr inbounds %class.btBvhTriangleMeshShape, ptr %this1, i32 0, i32 1
  %13 = load ptr, ptr %m_bvh9, align 8
  %vtable10 = load ptr, ptr %12, align 8
  %vfn11 = getelementptr inbounds ptr, ptr %vtable10, i64 6
  %14 = load ptr, ptr %vfn11, align 8
  %call12 = call noundef ptr %14(ptr noundef nonnull align 8 dereferenceable(8) %12, ptr noundef %13)
  store ptr %call12, ptr %chunk, align 8
  %15 = load ptr, ptr %chunk, align 8
  %tobool13 = icmp ne ptr %15, null
  br i1 %tobool13, label %if.then14, label %if.else

if.then14:                                        ; preds = %if.then
  %16 = load ptr, ptr %chunk, align 8
  %17 = load ptr, ptr %trimeshData, align 8
  %m_quantizedFloatBvh = getelementptr inbounds %struct.btTriangleMeshShapeData, ptr %17, i32 0, i32 2
  store ptr %16, ptr %m_quantizedFloatBvh, align 8
  %18 = load ptr, ptr %trimeshData, align 8
  %m_quantizedDoubleBvh = getelementptr inbounds %struct.btTriangleMeshShapeData, ptr %18, i32 0, i32 3
  store ptr null, ptr %m_quantizedDoubleBvh, align 8
  br label %if.end

if.else:                                          ; preds = %if.then
  %19 = load ptr, ptr %serializer.addr, align 8
  %m_bvh15 = getelementptr inbounds %class.btBvhTriangleMeshShape, ptr %this1, i32 0, i32 1
  %20 = load ptr, ptr %m_bvh15, align 8
  %vtable16 = load ptr, ptr %19, align 8
  %vfn17 = getelementptr inbounds ptr, ptr %vtable16, i64 7
  %21 = load ptr, ptr %vfn17, align 8
  %call18 = call noundef ptr %21(ptr noundef nonnull align 8 dereferenceable(8) %19, ptr noundef %20)
  %22 = load ptr, ptr %trimeshData, align 8
  %m_quantizedFloatBvh19 = getelementptr inbounds %struct.btTriangleMeshShapeData, ptr %22, i32 0, i32 2
  store ptr %call18, ptr %m_quantizedFloatBvh19, align 8
  %23 = load ptr, ptr %trimeshData, align 8
  %m_quantizedDoubleBvh20 = getelementptr inbounds %struct.btTriangleMeshShapeData, ptr %23, i32 0, i32 3
  store ptr null, ptr %m_quantizedDoubleBvh20, align 8
  %m_bvh21 = getelementptr inbounds %class.btBvhTriangleMeshShape, ptr %this1, i32 0, i32 1
  %24 = load ptr, ptr %m_bvh21, align 8
  %vtable22 = load ptr, ptr %24, align 8
  %vfn23 = getelementptr inbounds ptr, ptr %vtable22, i64 3
  %25 = load ptr, ptr %vfn23, align 8
  %call24 = call noundef i32 %25(ptr noundef nonnull align 8 dereferenceable(244) %24)
  store i32 %call24, ptr %sz, align 4
  %26 = load ptr, ptr %serializer.addr, align 8
  %27 = load i32, ptr %sz, align 4
  %conv = sext i32 %27 to i64
  %vtable26 = load ptr, ptr %26, align 8
  %vfn27 = getelementptr inbounds ptr, ptr %vtable26, i64 4
  %28 = load ptr, ptr %vfn27, align 8
  %call28 = call noundef ptr %28(ptr noundef nonnull align 8 dereferenceable(8) %26, i64 noundef %conv, i32 noundef 1)
  store ptr %call28, ptr %chunk25, align 8
  %m_bvh29 = getelementptr inbounds %class.btBvhTriangleMeshShape, ptr %this1, i32 0, i32 1
  %29 = load ptr, ptr %m_bvh29, align 8
  %30 = load ptr, ptr %chunk25, align 8
  %m_oldPtr = getelementptr inbounds %class.btChunk, ptr %30, i32 0, i32 2
  %31 = load ptr, ptr %m_oldPtr, align 8
  %32 = load ptr, ptr %serializer.addr, align 8
  %vtable30 = load ptr, ptr %29, align 8
  %vfn31 = getelementptr inbounds ptr, ptr %vtable30, i64 4
  %33 = load ptr, ptr %vfn31, align 8
  %call32 = call noundef ptr %33(ptr noundef nonnull align 8 dereferenceable(244) %29, ptr noundef %31, ptr noundef %32)
  store ptr %call32, ptr %structType, align 8
  %34 = load ptr, ptr %serializer.addr, align 8
  %35 = load ptr, ptr %chunk25, align 8
  %36 = load ptr, ptr %structType, align 8
  %m_bvh33 = getelementptr inbounds %class.btBvhTriangleMeshShape, ptr %this1, i32 0, i32 1
  %37 = load ptr, ptr %m_bvh33, align 8
  %vtable34 = load ptr, ptr %34, align 8
  %vfn35 = getelementptr inbounds ptr, ptr %vtable34, i64 5
  %38 = load ptr, ptr %vfn35, align 8
  call void %38(ptr noundef nonnull align 8 dereferenceable(8) %34, ptr noundef %35, ptr noundef %36, i32 noundef 1213612625, ptr noundef %37)
  br label %if.end

if.end:                                           ; preds = %if.else, %if.then14
  br label %if.end39

if.else36:                                        ; preds = %land.lhs.true, %entry
  %39 = load ptr, ptr %trimeshData, align 8
  %m_quantizedFloatBvh37 = getelementptr inbounds %struct.btTriangleMeshShapeData, ptr %39, i32 0, i32 2
  store ptr null, ptr %m_quantizedFloatBvh37, align 8
  %40 = load ptr, ptr %trimeshData, align 8
  %m_quantizedDoubleBvh38 = getelementptr inbounds %struct.btTriangleMeshShapeData, ptr %40, i32 0, i32 3
  store ptr null, ptr %m_quantizedDoubleBvh38, align 8
  br label %if.end39

if.end39:                                         ; preds = %if.else36, %if.end
  %m_triangleInfoMap = getelementptr inbounds %class.btBvhTriangleMeshShape, ptr %this1, i32 0, i32 2
  %41 = load ptr, ptr %m_triangleInfoMap, align 8
  %tobool40 = icmp ne ptr %41, null
  br i1 %tobool40, label %land.lhs.true41, label %if.else82

land.lhs.true41:                                  ; preds = %if.end39
  %42 = load ptr, ptr %serializer.addr, align 8
  %vtable42 = load ptr, ptr %42, align 8
  %vfn43 = getelementptr inbounds ptr, ptr %vtable42, i64 13
  %43 = load ptr, ptr %vfn43, align 8
  %call44 = call noundef i32 %43(ptr noundef nonnull align 8 dereferenceable(8) %42)
  %and45 = and i32 %call44, 2
  %tobool46 = icmp ne i32 %and45, 0
  br i1 %tobool46, label %if.else82, label %if.then47

if.then47:                                        ; preds = %land.lhs.true41
  %44 = load ptr, ptr %serializer.addr, align 8
  %m_triangleInfoMap49 = getelementptr inbounds %class.btBvhTriangleMeshShape, ptr %this1, i32 0, i32 2
  %45 = load ptr, ptr %m_triangleInfoMap49, align 8
  %vtable50 = load ptr, ptr %44, align 8
  %vfn51 = getelementptr inbounds ptr, ptr %vtable50, i64 6
  %46 = load ptr, ptr %vfn51, align 8
  %call52 = call noundef ptr %46(ptr noundef nonnull align 8 dereferenceable(8) %44, ptr noundef %45)
  store ptr %call52, ptr %chunk48, align 8
  %47 = load ptr, ptr %chunk48, align 8
  %tobool53 = icmp ne ptr %47, null
  br i1 %tobool53, label %if.then54, label %if.else56

if.then54:                                        ; preds = %if.then47
  %48 = load ptr, ptr %chunk48, align 8
  %49 = load ptr, ptr %trimeshData, align 8
  %m_triangleInfoMap55 = getelementptr inbounds %struct.btTriangleMeshShapeData, ptr %49, i32 0, i32 4
  store ptr %48, ptr %m_triangleInfoMap55, align 8
  br label %if.end81

if.else56:                                        ; preds = %if.then47
  %50 = load ptr, ptr %serializer.addr, align 8
  %m_triangleInfoMap57 = getelementptr inbounds %class.btBvhTriangleMeshShape, ptr %this1, i32 0, i32 2
  %51 = load ptr, ptr %m_triangleInfoMap57, align 8
  %vtable58 = load ptr, ptr %50, align 8
  %vfn59 = getelementptr inbounds ptr, ptr %vtable58, i64 7
  %52 = load ptr, ptr %vfn59, align 8
  %call60 = call noundef ptr %52(ptr noundef nonnull align 8 dereferenceable(8) %50, ptr noundef %51)
  %53 = load ptr, ptr %trimeshData, align 8
  %m_triangleInfoMap61 = getelementptr inbounds %struct.btTriangleMeshShapeData, ptr %53, i32 0, i32 4
  store ptr %call60, ptr %m_triangleInfoMap61, align 8
  %m_triangleInfoMap63 = getelementptr inbounds %class.btBvhTriangleMeshShape, ptr %this1, i32 0, i32 2
  %54 = load ptr, ptr %m_triangleInfoMap63, align 8
  %vtable64 = load ptr, ptr %54, align 8
  %vfn65 = getelementptr inbounds ptr, ptr %vtable64, i64 2
  %55 = load ptr, ptr %vfn65, align 8
  %call66 = call noundef i32 %55(ptr noundef nonnull align 8 dereferenceable(160) %54)
  store i32 %call66, ptr %sz62, align 4
  %56 = load ptr, ptr %serializer.addr, align 8
  %57 = load i32, ptr %sz62, align 4
  %conv68 = sext i32 %57 to i64
  %vtable69 = load ptr, ptr %56, align 8
  %vfn70 = getelementptr inbounds ptr, ptr %vtable69, i64 4
  %58 = load ptr, ptr %vfn70, align 8
  %call71 = call noundef ptr %58(ptr noundef nonnull align 8 dereferenceable(8) %56, i64 noundef %conv68, i32 noundef 1)
  store ptr %call71, ptr %chunk67, align 8
  %m_triangleInfoMap73 = getelementptr inbounds %class.btBvhTriangleMeshShape, ptr %this1, i32 0, i32 2
  %59 = load ptr, ptr %m_triangleInfoMap73, align 8
  %60 = load ptr, ptr %chunk67, align 8
  %m_oldPtr74 = getelementptr inbounds %class.btChunk, ptr %60, i32 0, i32 2
  %61 = load ptr, ptr %m_oldPtr74, align 8
  %62 = load ptr, ptr %serializer.addr, align 8
  %vtable75 = load ptr, ptr %59, align 8
  %vfn76 = getelementptr inbounds ptr, ptr %vtable75, i64 3
  %63 = load ptr, ptr %vfn76, align 8
  %call77 = call noundef ptr %63(ptr noundef nonnull align 8 dereferenceable(160) %59, ptr noundef %61, ptr noundef %62)
  store ptr %call77, ptr %structType72, align 8
  %64 = load ptr, ptr %serializer.addr, align 8
  %65 = load ptr, ptr %chunk67, align 8
  %66 = load ptr, ptr %structType72, align 8
  %m_triangleInfoMap78 = getelementptr inbounds %class.btBvhTriangleMeshShape, ptr %this1, i32 0, i32 2
  %67 = load ptr, ptr %m_triangleInfoMap78, align 8
  %vtable79 = load ptr, ptr %64, align 8
  %vfn80 = getelementptr inbounds ptr, ptr %vtable79, i64 5
  %68 = load ptr, ptr %vfn80, align 8
  call void %68(ptr noundef nonnull align 8 dereferenceable(8) %64, ptr noundef %65, ptr noundef %66, i32 noundef 1346456916, ptr noundef %67)
  br label %if.end81

if.end81:                                         ; preds = %if.else56, %if.then54
  br label %if.end84

if.else82:                                        ; preds = %land.lhs.true41, %if.end39
  %69 = load ptr, ptr %trimeshData, align 8
  %m_triangleInfoMap83 = getelementptr inbounds %struct.btTriangleMeshShapeData, ptr %69, i32 0, i32 4
  store ptr null, ptr %m_triangleInfoMap83, align 8
  br label %if.end84

if.end84:                                         ; preds = %if.else82, %if.end81
  %70 = load ptr, ptr %trimeshData, align 8
  %m_pad3 = getelementptr inbounds %struct.btTriangleMeshShapeData, ptr %70, i32 0, i32 6
  %arraydecay = getelementptr inbounds [4 x i8], ptr %m_pad3, i64 0, i64 0
  call void @llvm.memset.p0.i64(ptr align 4 %arraydecay, i8 0, i64 4, i1 false)
  ret ptr @.str
}