; Function Attrs: mustprogress uwtable
define dso_local noundef ptr @_ZNK22btBvhTriangleMeshShape9serializeEPvP12btSerializer(ptr noundef nonnull align 8 dereferenceable(109) %this, ptr noundef %dataBuffer, ptr noundef %serializer) unnamed_addr #0 align 2 {
entry:
  %call = tail call noundef ptr @_ZNK16btCollisionShape9serializeEPvP12btSerializer(ptr noundef nonnull align 8 dereferenceable(32) %this, ptr noundef %dataBuffer, ptr noundef %serializer)
  %m_meshInterface = getelementptr inbounds i8, ptr %this, i64 72
  %0 = load ptr, ptr %m_meshInterface, align 8
  %m_meshInterface2 = getelementptr inbounds i8, ptr %dataBuffer, i64 16
  %vtable = load ptr, ptr %0, align 8
  %vfn = getelementptr inbounds i8, ptr %vtable, i64 112
  %1 = load ptr, ptr %vfn, align 8
  %call3 = tail call noundef ptr %1(ptr noundef nonnull align 8 dereferenceable(24) %0, ptr noundef nonnull %m_meshInterface2, ptr noundef %serializer)
  %m_collisionMargin = getelementptr inbounds i8, ptr %this, i64 32
  %2 = load float, ptr %m_collisionMargin, align 8
  %m_collisionMargin4 = getelementptr inbounds i8, ptr %dataBuffer, i64 72
  store float %2, ptr %m_collisionMargin4, align 8
  %m_bvh = getelementptr inbounds i8, ptr %this, i64 80
  %3 = load ptr, ptr %m_bvh, align 8
  %tobool.not = icmp eq ptr %3, null
  br i1 %tobool.not, label %if.else36, label %land.lhs.true

land.lhs.true:                                    ; preds = %entry
  %vtable5 = load ptr, ptr %serializer, align 8
  %vfn6 = getelementptr inbounds i8, ptr %vtable5, i64 104
  %4 = load ptr, ptr %vfn6, align 8
  %call7 = tail call noundef i32 %4(ptr noundef nonnull align 8 dereferenceable(8) %serializer)
  %and = and i32 %call7, 1
  %tobool8.not = icmp eq i32 %and, 0
  br i1 %tobool8.not, label %if.then, label %if.else36

if.then:                                          ; preds = %land.lhs.true
  %5 = load ptr, ptr %m_bvh, align 8
  %vtable10 = load ptr, ptr %serializer, align 8
  %vfn11 = getelementptr inbounds i8, ptr %vtable10, i64 48
  %6 = load ptr, ptr %vfn11, align 8
  %call12 = tail call noundef ptr %6(ptr noundef nonnull align 8 dereferenceable(8) %serializer, ptr noundef %5)
  %tobool13.not = icmp eq ptr %call12, null
  br i1 %tobool13.not, label %if.else, label %if.then14

if.then14:                                        ; preds = %if.then
  %m_quantizedFloatBvh = getelementptr inbounds i8, ptr %dataBuffer, i64 48
  store ptr %call12, ptr %m_quantizedFloatBvh, align 8
  %m_quantizedDoubleBvh = getelementptr inbounds i8, ptr %dataBuffer, i64 56
  store ptr null, ptr %m_quantizedDoubleBvh, align 8
  br label %if.end39

if.else:                                          ; preds = %if.then
  %7 = load ptr, ptr %m_bvh, align 8
  %vtable16 = load ptr, ptr %serializer, align 8
  %vfn17 = getelementptr inbounds i8, ptr %vtable16, i64 56
  %8 = load ptr, ptr %vfn17, align 8
  %call18 = tail call noundef ptr %8(ptr noundef nonnull align 8 dereferenceable(8) %serializer, ptr noundef %7)
  %m_quantizedFloatBvh19 = getelementptr inbounds i8, ptr %dataBuffer, i64 48
  store ptr %call18, ptr %m_quantizedFloatBvh19, align 8
  %m_quantizedDoubleBvh20 = getelementptr inbounds i8, ptr %dataBuffer, i64 56
  store ptr null, ptr %m_quantizedDoubleBvh20, align 8
  %9 = load ptr, ptr %m_bvh, align 8
  %vtable22 = load ptr, ptr %9, align 8
  %vfn23 = getelementptr inbounds i8, ptr %vtable22, i64 24
  %10 = load ptr, ptr %vfn23, align 8
  %call24 = tail call noundef i32 %10(ptr noundef nonnull align 8 dereferenceable(244) %9)
  %conv = sext i32 %call24 to i64
  %vtable26 = load ptr, ptr %serializer, align 8
  %vfn27 = getelementptr inbounds i8, ptr %vtable26, i64 32
  %11 = load ptr, ptr %vfn27, align 8
  %call28 = tail call noundef ptr %11(ptr noundef nonnull align 8 dereferenceable(8) %serializer, i64 noundef %conv, i32 noundef 1)
  %12 = load ptr, ptr %m_bvh, align 8
  %m_oldPtr = getelementptr inbounds i8, ptr %call28, i64 8
  %13 = load ptr, ptr %m_oldPtr, align 8
  %vtable30 = load ptr, ptr %12, align 8
  %vfn31 = getelementptr inbounds i8, ptr %vtable30, i64 32
  %14 = load ptr, ptr %vfn31, align 8
  %call32 = tail call noundef ptr %14(ptr noundef nonnull align 8 dereferenceable(244) %12, ptr noundef %13, ptr noundef nonnull %serializer)
  %15 = load ptr, ptr %m_bvh, align 8
  %vtable34 = load ptr, ptr %serializer, align 8
  %vfn35 = getelementptr inbounds i8, ptr %vtable34, i64 40
  %16 = load ptr, ptr %vfn35, align 8
  tail call void %16(ptr noundef nonnull align 8 dereferenceable(8) %serializer, ptr noundef %call28, ptr noundef %call32, i32 noundef 1213612625, ptr noundef %15)
  br label %if.end39

if.else36:                                        ; preds = %land.lhs.true, %entry
  %m_quantizedFloatBvh37 = getelementptr inbounds i8, ptr %dataBuffer, i64 48
  tail call void @llvm.memset.p0.i64(ptr noundef nonnull align 8 dereferenceable(16) %m_quantizedFloatBvh37, i8 0, i64 16, i1 false)
  br label %if.end39

if.end39:                                         ; preds = %if.then14, %if.else, %if.else36
  %m_triangleInfoMap = getelementptr inbounds i8, ptr %this, i64 88
  %17 = load ptr, ptr %m_triangleInfoMap, align 8
  %tobool40.not = icmp eq ptr %17, null
  br i1 %tobool40.not, label %if.else82, label %land.lhs.true41

land.lhs.true41:                                  ; preds = %if.end39
  %vtable42 = load ptr, ptr %serializer, align 8
  %vfn43 = getelementptr inbounds i8, ptr %vtable42, i64 104
  %18 = load ptr, ptr %vfn43, align 8
  %call44 = tail call noundef i32 %18(ptr noundef nonnull align 8 dereferenceable(8) %serializer)
  %and45 = and i32 %call44, 2
  %tobool46.not = icmp eq i32 %and45, 0
  br i1 %tobool46.not, label %if.then47, label %if.else82

if.then47:                                        ; preds = %land.lhs.true41
  %19 = load ptr, ptr %m_triangleInfoMap, align 8
  %vtable50 = load ptr, ptr %serializer, align 8
  %vfn51 = getelementptr inbounds i8, ptr %vtable50, i64 48
  %20 = load ptr, ptr %vfn51, align 8
  %call52 = tail call noundef ptr %20(ptr noundef nonnull align 8 dereferenceable(8) %serializer, ptr noundef %19)
  %tobool53.not = icmp eq ptr %call52, null
  br i1 %tobool53.not, label %if.else56, label %if.then54

if.then54:                                        ; preds = %if.then47
  %m_triangleInfoMap55 = getelementptr inbounds i8, ptr %dataBuffer, i64 64
  store ptr %call52, ptr %m_triangleInfoMap55, align 8
  br label %if.end84

if.else56:                                        ; preds = %if.then47
  %21 = load ptr, ptr %m_triangleInfoMap, align 8
  %vtable58 = load ptr, ptr %serializer, align 8
  %vfn59 = getelementptr inbounds i8, ptr %vtable58, i64 56
  %22 = load ptr, ptr %vfn59, align 8
  %call60 = tail call noundef ptr %22(ptr noundef nonnull align 8 dereferenceable(8) %serializer, ptr noundef %21)
  %m_triangleInfoMap61 = getelementptr inbounds i8, ptr %dataBuffer, i64 64
  store ptr %call60, ptr %m_triangleInfoMap61, align 8
  %23 = load ptr, ptr %m_triangleInfoMap, align 8
  %vtable64 = load ptr, ptr %23, align 8
  %vfn65 = getelementptr inbounds i8, ptr %vtable64, i64 16
  %24 = load ptr, ptr %vfn65, align 8
  %call66 = tail call noundef i32 %24(ptr noundef nonnull align 8 dereferenceable(160) %23)
  %conv68 = sext i32 %call66 to i64
  %vtable69 = load ptr, ptr %serializer, align 8
  %vfn70 = getelementptr inbounds i8, ptr %vtable69, i64 32
  %25 = load ptr, ptr %vfn70, align 8
  %call71 = tail call noundef ptr %25(ptr noundef nonnull align 8 dereferenceable(8) %serializer, i64 noundef %conv68, i32 noundef 1)
  %26 = load ptr, ptr %m_triangleInfoMap, align 8
  %m_oldPtr74 = getelementptr inbounds i8, ptr %call71, i64 8
  %27 = load ptr, ptr %m_oldPtr74, align 8
  %vtable75 = load ptr, ptr %26, align 8
  %vfn76 = getelementptr inbounds i8, ptr %vtable75, i64 24
  %28 = load ptr, ptr %vfn76, align 8
  %call77 = tail call noundef ptr %28(ptr noundef nonnull align 8 dereferenceable(160) %26, ptr noundef %27, ptr noundef nonnull %serializer)
  %29 = load ptr, ptr %m_triangleInfoMap, align 8
  %vtable79 = load ptr, ptr %serializer, align 8
  %vfn80 = getelementptr inbounds i8, ptr %vtable79, i64 40
  %30 = load ptr, ptr %vfn80, align 8
  tail call void %30(ptr noundef nonnull align 8 dereferenceable(8) %serializer, ptr noundef %call71, ptr noundef %call77, i32 noundef 1346456916, ptr noundef %29)
  br label %if.end84

if.else82:                                        ; preds = %land.lhs.true41, %if.end39
  %m_triangleInfoMap83 = getelementptr inbounds i8, ptr %dataBuffer, i64 64
  store ptr null, ptr %m_triangleInfoMap83, align 8
  br label %if.end84

if.end84:                                         ; preds = %if.then54, %if.else56, %if.else82
  %m_pad3 = getelementptr inbounds i8, ptr %dataBuffer, i64 76
  store i32 0, ptr %m_pad3, align 4
  ret ptr @.str
}